target datalayout = "e-m:e-p270:32:32-p271:32:32-p272:64:64-i64:64-i128:128-f80:128-n8:16:32:64-S128"
target triple = "x86_64-pc-linux-gnu"

%"class.LIEF::MachO::BuildVersion" = type { %"class.LIEF::MachO::LoadCommand", i32, %"struct.std::array", %"struct.std::array", %"class.std::vector.0" }
%"class.LIEF::MachO::LoadCommand" = type { %"class.LIEF::Object", %"class.std::vector", i64, i32, i64 }
%"class.LIEF::Object" = type { ptr }
%"class.std::vector" = type { %"struct.std::_Vector_base" }
%"struct.std::_Vector_base" = type { %"struct.std::_Vector_base<unsigned char, std::allocator<unsigned char>>::_Vector_impl" }
%"struct.std::_Vector_base<unsigned char, std::allocator<unsigned char>>::_Vector_impl" = type { %"struct.std::_Vector_base<unsigned char, std::allocator<unsigned char>>::_Vector_impl_data" }
%"struct.std::_Vector_base<unsigned char, std::allocator<unsigned char>>::_Vector_impl_data" = type { ptr, ptr, ptr }
%"struct.std::array" = type { [3 x i32] }
%"class.std::vector.0" = type { %"struct.std::_Vector_base.1" }
%"struct.std::_Vector_base.1" = type { %"struct.std::_Vector_base<LIEF::MachO::BuildToolVersion, std::allocator<LIEF::MachO::BuildToolVersion>>::_Vector_impl" }
%"struct.std::_Vector_base<LIEF::MachO::BuildToolVersion, std::allocator<LIEF::MachO::BuildToolVersion>>::_Vector_impl" = type { %"struct.std::_Vector_base<LIEF::MachO::BuildToolVersion, std::allocator<LIEF::MachO::BuildToolVersion>>::_Vector_impl_data" }
%"struct.std::_Vector_base<LIEF::MachO::BuildToolVersion, std::allocator<LIEF::MachO::BuildToolVersion>>::_Vector_impl_data" = type { ptr, ptr, ptr }

; Function Attrs: mustprogress nounwind uwtable
define linkonce_odr hidden void @_ZNSt15__new_allocatorIN4LIEF5MachO16BuildToolVersionEEC2Ev(ptr noundef nonnull align 1 dereferenceable(1) %0) unnamed_addr #2 comdat align 2 {
  %2 = alloca ptr, align 8
  store ptr %0, ptr %2, align 8
  ret void
}

; Function Attrs: mustprogress nounwind uwtable
define linkonce_odr hidden void @_ZNSt12_Vector_baseIN4LIEF5MachO16BuildToolVersionESaIS2_EE17_Vector_impl_dataC2Ev(ptr noundef nonnull align 8 dereferenceable(24) %0) unnamed_addr #2 comdat align 2 {
  %2 = alloca ptr, align 8
  store ptr %0, ptr %2, align 8
  %3 = load ptr, ptr %2, align 8
  %4 = getelementptr inbounds %"struct.std::_Vector_base<LIEF::MachO::BuildToolVersion, std::allocator<LIEF::MachO::BuildToolVersion>>::_Vector_impl_data", ptr %3, i32 0, i32 0
  store ptr null, ptr %4, align 8
  %5 = getelementptr inbounds %"struct.std::_Vector_base<LIEF::MachO::BuildToolVersion, std::allocator<LIEF::MachO::BuildToolVersion>>::_Vector_impl_data", ptr %3, i32 0, i32 1
  store ptr null, ptr %5, align 8
  %6 = getelementptr inbounds %"struct.std::_Vector_base<LIEF::MachO::BuildToolVersion, std::allocator<LIEF::MachO::BuildToolVersion>>::_Vector_impl_data", ptr %3, i32 0, i32 2
  store ptr null, ptr %6, align 8
  ret void
}

; Function Attrs: mustprogress nounwind uwtable
define linkonce_odr hidden void @_ZNSaIN4LIEF5MachO16BuildToolVersionEEC2Ev(ptr noundef nonnull align 1 dereferenceable(1) %0) unnamed_addr #2 comdat align 2 {
  %2 = alloca ptr, align 8
  store ptr %0, ptr %2, align 8
  %3 = load ptr, ptr %2, align 8
  call void @_ZNSt15__new_allocatorIN4LIEF5MachO16BuildToolVersionEEC2Ev(ptr noundef nonnull align 1 dereferenceable(1) %3) #11
  ret void
}

; Function Attrs: mustprogress nounwind uwtable
define linkonce_odr hidden void @_ZNSt12_Vector_baseIN4LIEF5MachO16BuildToolVersionESaIS2_EE12_Vector_implC2Ev(ptr noundef nonnull align 8 dereferenceable(24) %0) unnamed_addr #2 comdat align 2 {
  %2 = alloca ptr, align 8
  store ptr %0, ptr %2, align 8
  %3 = load ptr, ptr %2, align 8
  call void @_ZNSaIN4LIEF5MachO16BuildToolVersionEEC2Ev(ptr noundef nonnull align 1 dereferenceable(1) %3) #11
  call void @_ZNSt12_Vector_baseIN4LIEF5MachO16BuildToolVersionESaIS2_EE17_Vector_impl_dataC2Ev(ptr noundef nonnull align 8 dereferenceable(24) %3) #11
  ret void
}

; Function Attrs: mustprogress nounwind uwtable
define linkonce_odr hidden void @_ZNSt12_Vector_baseIN4LIEF5MachO16BuildToolVersionESaIS2_EEC2Ev(ptr noundef nonnull align 8 dereferenceable(24) %0) unnamed_addr #2 comdat align 2 {
  %2 = alloca ptr, align 8
  store ptr %0, ptr %2, align 8
  %3 = load ptr, ptr %2, align 8
  %4 = getelementptr inbounds %"struct.std::_Vector_base.1", ptr %3, i32 0, i32 0
  call void @_ZNSt12_Vector_baseIN4LIEF5MachO16BuildToolVersionESaIS2_EE12_Vector_implC2Ev(ptr noundef nonnull align 8 dereferenceable(24) %4) #11
  ret void
}

; Function Attrs: mustprogress nounwind uwtable
define linkonce_odr hidden void @_ZNSt6vectorIN4LIEF5MachO16BuildToolVersionESaIS2_EEC2Ev(ptr noundef nonnull align 8 dereferenceable(24) %0) unnamed_addr #2 comdat align 2 {
  %2 = alloca ptr, align 8
  store ptr %0, ptr %2, align 8
  %3 = load ptr, ptr %2, align 8
  call void @_ZNSt12_Vector_baseIN4LIEF5MachO16BuildToolVersionESaIS2_EEC2Ev(ptr noundef nonnull align 8 dereferenceable(24) %3) #11
  ret void
}

; Function Attrs: mustprogress uwtable
define void @_ZN4LIEF5MachO12BuildVersionC2Ev(ptr noundef nonnull align 8 dereferenceable(112) %0) unnamed_addr #0 align 2 {
  %2 = alloca ptr, align 8
  store ptr %0, ptr %2, align 8
  %3 = load ptr, ptr %2, align 8
  call void @_ZN4LIEF5MachO11LoadCommandC2Ev(ptr noundef nonnull align 8 dereferenceable(56) %3)
  store ptr getelementptr inbounds ({ [9 x ptr] }, ptr @_ZTVN4LIEF5MachO12BuildVersionE, i32 0, i32 0, i32 2), ptr %3, align 8
  %4 = getelementptr inbounds %"class.LIEF::MachO::BuildVersion", ptr %3, i32 0, i32 1
  store i32 0, ptr %4, align 8
  %5 = getelementptr inbounds %"class.LIEF::MachO::BuildVersion", ptr %3, i32 0, i32 4
  call void @_ZNSt6vectorIN4LIEF5MachO16BuildToolVersionESaIS2_EEC2Ev(ptr noundef nonnull align 8 dereferenceable(24) %5) #11
  ret void
}