; Function Attrs: mustprogress uwtable
define void @_ZN4LIEF5MachO12BuildVersionC2Ev(ptr noundef nonnull align 8 dereferenceable(112) %0) unnamed_addr #0 align 2 {
  tail call void @_ZN4LIEF5MachO11LoadCommandC2Ev(ptr noundef nonnull align 8 dereferenceable(56) %0)
  store ptr getelementptr inbounds ({ [9 x ptr] }, ptr @_ZTVN4LIEF5MachO12BuildVersionE, i64 0, i32 0, i64 2), ptr %0, align 8
  %2 = getelementptr inbounds i8, ptr %0, i64 56
  store i32 0, ptr %2, align 8
  %3 = getelementptr inbounds i8, ptr %0, i64 88
  tail call void @llvm.memset.p0.i64(ptr noundef nonnull align 8 dereferenceable(24) %3, i8 0, i64 24, i1 false)
  ret void
}